target datalayout = "e-m:e-p270:32:32-p271:32:32-p272:64:64-i64:64-i128:128-f80:128-n8:16:32:64-S128"
target triple = "x86_64-pc-linux-gnu"

%struct.PgStat_LocalState = type { ptr, ptr, ptr, %struct.PgStat_Snapshot }
%struct.PgStat_Snapshot = type { i32, i64, [13 x i8], %struct.PgStat_ArchiverStats, %struct.PgStat_BgWriterStats, %struct.PgStat_CheckpointerStats, %struct.PgStat_IO, [8 x %struct.PgStat_SLRUStats], %struct.PgStat_WalStats, [129 x i8], [129 x ptr], ptr, ptr }
%struct.PgStat_ArchiverStats = type { i64, [41 x i8], i64, i64, [41 x i8], i64, i64 }
%struct.PgStat_BgWriterStats = type { i64, i64, i64, i64 }
%struct.PgStat_CheckpointerStats = type { i64, i64, i64, i64, i64, i64, i64, i64, i64, i64, i64 }
%struct.PgStat_IO = type { i64, [17 x %struct.PgStat_BktypeIO] }
%struct.PgStat_BktypeIO = type { [3 x [5 x [8 x i64]]], [3 x [5 x [8 x i64]]], [3 x [5 x [8 x i64]]] }
%struct.PgStat_SLRUStats = type { i64, i64, i64, i64, i64, i64, i64, i64 }
%struct.PgStat_WalStats = type { i64, i64, i64, i64, i64, i64, i64, i64, i64 }
%struct.PgStat_KindInfo = type { i8, i32, i32, i32, i32, i32, i32, ptr, ptr, ptr, ptr, ptr, ptr, ptr, ptr, ptr, ptr, ptr, ptr }
%struct.pg_atomic_uint32 = type { i32 }
%struct.PgStatShared_HashEntry = type { %struct.PgStat_HashKey, i8, %struct.pg_atomic_uint32, %struct.pg_atomic_uint32, i64 }
%struct.PgStat_HashKey = type { i32, i32, i64 }

@pgStatLocal = external global %struct.PgStat_LocalState, align 8
@pgStatEntryRefHash = internal global ptr null, align 8
@.str.6 = private unnamed_addr constant [15 x i8] c"pgstat_shmem.c\00", align 1
@.str.9 = private unnamed_addr constant [84 x i8] c"trying to drop stats entry already dropped: kind=%s dboid=%u objid=%llu refcount=%u\00", align 1
@__func__.pgstat_drop_entry_internal = private unnamed_addr constant [27 x i8] c"pgstat_drop_entry_internal\00", align 1

; Function Attrs: inlinehint nounwind uwtable
define internal i32 @pg_atomic_fetch_sub_u32_impl(ptr noundef %0, i32 noundef %1) #3 {
  %3 = alloca ptr, align 8
  %4 = alloca i32, align 4
  store ptr %0, ptr %3, align 8
  store i32 %1, ptr %4, align 4
  %5 = load ptr, ptr %3, align 8
  %6 = getelementptr inbounds nuw %struct.pg_atomic_uint32, ptr %5, i32 0, i32 0
  %7 = load i32, ptr %4, align 4
  %8 = atomicrmw sub ptr %6, i32 %7 seq_cst, align 4
  ret i32 %8
}

; Function Attrs: inlinehint nounwind uwtable
define internal i32 @pg_atomic_sub_fetch_u32_impl(ptr noundef %0, i32 noundef %1) #3 {
  %3 = alloca ptr, align 8
  %4 = alloca i32, align 4
  store ptr %0, ptr %3, align 8
  store i32 %1, ptr %4, align 4
  %5 = load ptr, ptr %3, align 8
  %6 = load i32, ptr %4, align 4
  %7 = call i32 @pg_atomic_fetch_sub_u32_impl(ptr noundef %5, i32 noundef %6)
  %8 = load i32, ptr %4, align 4
  %9 = sub i32 %7, %8
  ret i32 %9
}

; Function Attrs: inlinehint nounwind uwtable
define internal i32 @pg_atomic_read_u32_impl(ptr noundef %0) #3 {
  %2 = alloca ptr, align 8
  store ptr %0, ptr %2, align 8
  %3 = load ptr, ptr %2, align 8
  %4 = getelementptr inbounds nuw %struct.pg_atomic_uint32, ptr %3, i32 0, i32 0
  %5 = load volatile i32, ptr %4, align 4
  ret i32 %5
}

; Function Attrs: nounwind uwtable
define internal void @pgstat_free_entry(ptr noundef %0, ptr noundef %1) #0 {
  %3 = alloca ptr, align 8
  %4 = alloca ptr, align 8
  %5 = alloca i64, align 8
  store ptr %0, ptr %3, align 8
  store ptr %1, ptr %4, align 8
  call void @llvm.lifetime.start.p0(i64 8, ptr %5) #10
  %6 = load ptr, ptr %3, align 8
  %7 = getelementptr inbounds nuw %struct.PgStatShared_HashEntry, ptr %6, i32 0, i32 4
  %8 = load i64, ptr %7, align 8
  store i64 %8, ptr %5, align 8
  %9 = load ptr, ptr %4, align 8
  %10 = icmp ne ptr %9, null
  br i1 %10, label %14, label %11

11:                                               ; preds = %2
  %12 = load ptr, ptr getelementptr inbounds nuw (%struct.PgStat_LocalState, ptr @pgStatLocal, i32 0, i32 2), align 8
  %13 = load ptr, ptr %3, align 8
  call void @dshash_delete_entry(ptr noundef %12, ptr noundef %13)
  br label %16

14:                                               ; preds = %2
  %15 = load ptr, ptr %4, align 8
  call void @dshash_delete_current(ptr noundef %15)
  br label %16

16:                                               ; preds = %14, %11
  %17 = load ptr, ptr getelementptr inbounds nuw (%struct.PgStat_LocalState, ptr @pgStatLocal, i32 0, i32 1), align 8
  %18 = load i64, ptr %5, align 8
  call void @dsa_free(ptr noundef %17, i64 noundef %18)
  call void @llvm.lifetime.end.p0(i64 8, ptr %5) #10
  ret void
}

; Function Attrs: inlinehint nounwind uwtable
define internal i32 @pg_atomic_sub_fetch_u32(ptr noundef %0, i32 noundef %1) #3 {
  %3 = alloca ptr, align 8
  %4 = alloca i32, align 4
  store ptr %0, ptr %3, align 8
  store i32 %1, ptr %4, align 4
  %5 = load ptr, ptr %3, align 8
  %6 = load i32, ptr %4, align 4
  %7 = call i32 @pg_atomic_sub_fetch_u32_impl(ptr noundef %5, i32 noundef %6)
  ret i32 %7
}

; Function Attrs: inlinehint nounwind uwtable
define internal i32 @pg_atomic_read_u32(ptr noundef %0) #3 {
  %2 = alloca ptr, align 8
  store ptr %0, ptr %2, align 8
  %3 = load ptr, ptr %2, align 8
  %4 = call i32 @pg_atomic_read_u32_impl(ptr noundef %3)
  ret i32 %4
}

; Function Attrs: nounwind uwtable
define internal zeroext i1 @pgstat_drop_entry_internal(ptr noundef %0, ptr noundef %1) #0 {
  %3 = alloca i1, align 1
  %4 = alloca ptr, align 8
  %5 = alloca ptr, align 8
  store ptr %0, ptr %4, align 8
  store ptr %1, ptr %5, align 8
  %6 = load ptr, ptr @pgStatEntryRefHash, align 8
  %7 = icmp ne ptr %6, null
  br i1 %7, label %8, label %9

8:                                                ; preds = %2
  br label %9

9:                                                ; preds = %8, %2
  %10 = load ptr, ptr %4, align 8
  %11 = getelementptr inbounds nuw %struct.PgStatShared_HashEntry, ptr %10, i32 0, i32 1
  %12 = load i8, ptr %11, align 8, !range !6, !noundef !7
  %13 = trunc i8 %12 to i1
  br i1 %13, label %14, label %42

14:                                               ; preds = %9
  br label %15

15:                                               ; preds = %14
  br i1 true, label %16, label %18

16:                                               ; preds = %15
  %17 = call zeroext i1 @errstart_cold(i32 noundef 21, ptr noundef null) #11
  br i1 %17, label %20, label %40

18:                                               ; preds = %15
  %19 = call zeroext i1 @errstart(i32 noundef 21, ptr noundef null)
  br i1 %19, label %20, label %40

20:                                               ; preds = %18, %16
  %21 = load ptr, ptr %4, align 8
  %22 = getelementptr inbounds nuw %struct.PgStatShared_HashEntry, ptr %21, i32 0, i32 0
  %23 = getelementptr inbounds nuw %struct.PgStat_HashKey, ptr %22, i32 0, i32 0
  %24 = load i32, ptr %23, align 8
  %25 = call ptr @pgstat_get_kind_info(i32 noundef %24)
  %26 = getelementptr inbounds nuw %struct.PgStat_KindInfo, ptr %25, i32 0, i32 18
  %27 = load ptr, ptr %26, align 8
  %28 = load ptr, ptr %4, align 8
  %29 = getelementptr inbounds nuw %struct.PgStatShared_HashEntry, ptr %28, i32 0, i32 0
  %30 = getelementptr inbounds nuw %struct.PgStat_HashKey, ptr %29, i32 0, i32 1
  %31 = load i32, ptr %30, align 4
  %32 = load ptr, ptr %4, align 8
  %33 = getelementptr inbounds nuw %struct.PgStatShared_HashEntry, ptr %32, i32 0, i32 0
  %34 = getelementptr inbounds nuw %struct.PgStat_HashKey, ptr %33, i32 0, i32 2
  %35 = load i64, ptr %34, align 8
  %36 = load ptr, ptr %4, align 8
  %37 = getelementptr inbounds nuw %struct.PgStatShared_HashEntry, ptr %36, i32 0, i32 2
  %38 = call i32 @pg_atomic_read_u32(ptr noundef %37)
  %39 = call i32 (ptr, ...) @errmsg_internal(ptr noundef @.str.9, ptr noundef %27, i32 noundef %31, i64 noundef %35, i32 noundef %38)
  call void @errfinish(ptr noundef @.str.6, i32 noundef 871, ptr noundef @__func__.pgstat_drop_entry_internal)
  br label %40

40:                                               ; preds = %20, %18, %16
  unreachable

41:                                               ; No predecessors!
  br label %42

42:                                               ; preds = %41, %9
  %43 = load ptr, ptr %4, align 8
  %44 = getelementptr inbounds nuw %struct.PgStatShared_HashEntry, ptr %43, i32 0, i32 1
  store i8 1, ptr %44, align 8
  %45 = load ptr, ptr %4, align 8
  %46 = getelementptr inbounds nuw %struct.PgStatShared_HashEntry, ptr %45, i32 0, i32 2
  %47 = call i32 @pg_atomic_sub_fetch_u32(ptr noundef %46, i32 noundef 1)
  %48 = icmp eq i32 %47, 0
  br i1 %48, label %49, label %52

49:                                               ; preds = %42
  %50 = load ptr, ptr %4, align 8
  %51 = load ptr, ptr %5, align 8
  call void @pgstat_free_entry(ptr noundef %50, ptr noundef %51)
  store i1 true, ptr %3, align 1
  br label %59

52:                                               ; preds = %42
  %53 = load ptr, ptr %5, align 8
  %54 = icmp ne ptr %53, null
  br i1 %54, label %58, label %55

55:                                               ; preds = %52
  %56 = load ptr, ptr getelementptr inbounds nuw (%struct.PgStat_LocalState, ptr @pgStatLocal, i32 0, i32 2), align 8
  %57 = load ptr, ptr %4, align 8
  call void @dshash_release_lock(ptr noundef %56, ptr noundef %57)
  br label %58

58:                                               ; preds = %55, %52
  store i1 false, ptr %3, align 1
  br label %59

59:                                               ; preds = %58, %49
  %60 = load i1, ptr %3, align 1
  ret i1 %60
}