; Function Attrs: nounwind uwtable
define internal fastcc noundef zeroext i1 @pgstat_drop_entry_internal(ptr noundef nonnull %0, ptr noundef %1) unnamed_addr #0 {
  %3 = getelementptr inbounds nuw i8, ptr %0, i64 16
  %4 = load i8, ptr %3, align 8, !range !6, !noundef !7
  %5 = trunc nuw i8 %4 to i1
  br i1 %5, label %6, label %19

6:                                                ; preds = %2
  %7 = tail call zeroext i1 @errstart_cold(i32 noundef 21, ptr noundef null) #16
  tail call void @llvm.assume(i1 %7)
  %8 = load i32, ptr %0, align 8
  %9 = tail call ptr @pgstat_get_kind_info(i32 noundef %8) #15
  %10 = getelementptr inbounds nuw i8, ptr %9, i64 120
  %11 = load ptr, ptr %10, align 8
  %12 = getelementptr inbounds nuw i8, ptr %0, i64 4
  %13 = load i32, ptr %12, align 4
  %14 = getelementptr inbounds nuw i8, ptr %0, i64 8
  %15 = load i64, ptr %14, align 8
  %16 = getelementptr inbounds nuw i8, ptr %0, i64 20
  %17 = load volatile i32, ptr %16, align 4
  %18 = tail call i32 (ptr, ...) @errmsg_internal(ptr noundef nonnull @.str.9, ptr noundef %11, i32 noundef %13, i64 noundef %15, i32 noundef %17) #15
  tail call void @errfinish(ptr noundef nonnull @.str.6, i32 noundef 871, ptr noundef nonnull @__func__.pgstat_drop_entry_internal) #15
  unreachable

19:                                               ; preds = %2
  store i8 1, ptr %3, align 8
  %20 = getelementptr inbounds nuw i8, ptr %0, i64 20
  %21 = atomicrmw sub ptr %20, i32 1 seq_cst, align 4
  %22 = icmp eq i32 %21, 1
  br i1 %22, label %23, label %30

23:                                               ; preds = %19
  %24 = getelementptr inbounds nuw i8, ptr %0, i64 32
  %25 = load i64, ptr %24, align 8
  %.not.i = icmp eq ptr %1, null
  br i1 %.not.i, label %26, label %28

26:                                               ; preds = %23
  %27 = load ptr, ptr getelementptr inbounds nuw (i8, ptr @pgStatLocal, i64 16), align 8
  tail call void @dshash_delete_entry(ptr noundef %27, ptr noundef nonnull %0) #15
  br label %pgstat_free_entry.exit

28:                                               ; preds = %23
  tail call void @dshash_delete_current(ptr noundef nonnull %1) #15
  br label %pgstat_free_entry.exit

pgstat_free_entry.exit:                           ; preds = %26, %28
  %29 = load ptr, ptr getelementptr inbounds nuw (i8, ptr @pgStatLocal, i64 8), align 8
  tail call void @dsa_free(ptr noundef %29, i64 noundef %25) #15
  br label %33

30:                                               ; preds = %19
  %.not = icmp eq ptr %1, null
  br i1 %.not, label %31, label %33

31:                                               ; preds = %30
  %32 = load ptr, ptr getelementptr inbounds nuw (i8, ptr @pgStatLocal, i64 16), align 8
  tail call void @dshash_release_lock(ptr noundef %32, ptr noundef nonnull %0) #15
  br label %33

33:                                               ; preds = %30, %31, %pgstat_free_entry.exit
  ret i1 %22
}